; Function Attrs: null_pointer_is_valid sspstrong uwtable
define internal fastcc void @dissect_attr_device_capability_extension(ptr noundef %0, ptr noundef %1, i32 noundef %2, i16 noundef zeroext %3, ptr noundef %4) unnamed_addr #0 {
  %6 = icmp ult i16 %3, 2
  br i1 %6, label %7, label %9

7:                                                ; preds = %5
  %8 = tail call ptr @expert_add_info(ptr noundef %4, ptr noundef %0, ptr noundef nonnull @ei_nan_elem_len_invalid)
  br label %14

9:                                                ; preds = %5
  %10 = add i32 %2, 3
  %11 = load i32, ptr @hf_nan_attr_device_capability_extension, align 4
  %12 = load i32, ptr @ett_device_capability_extension, align 4
  %13 = tail call ptr @proto_tree_add_bitmask(ptr noundef %0, ptr noundef %1, i32 noundef %10, i32 noundef %11, i32 noundef %12, ptr noundef nonnull @dissect_attr_device_capability_extension.capability_info_fields, i32 noundef -2147483648)
  br label %14

14:                                               ; preds = %9, %7
  ret void
}